; ModuleID = '10/1818.c'
source_filename = "10/1818.c"
target datalayout = "e-m:e-p270:32:32-p271:32:32-p272:64:64-i64:64-f80:128-n8:16:32:64-S128"
target triple = "x86_64-pc-linux-gnu"

@.str = private unnamed_addr constant [3 x i8] c"%d\00", align 1
@.str.1 = private unnamed_addr constant [4 x i8] c"%d\0A\00", align 1

; Function Attrs: noinline nounwind uwtable
define dso_local void @main() #0 {
  %1 = alloca i32, align 4
  %2 = alloca i32, align 4
  %3 = alloca i32, align 4
  %4 = alloca i32, align 4
  %5 = alloca [25 x i32], align 16
  %6 = alloca [25 x i32], align 16
  store i32 1, i32* %4, align 4
  %7 = call i32 (i8*, ...) @__isoc99_scanf(i8* getelementptr inbounds ([3 x i8], [3 x i8]* @.str, i64 0, i64 0), i32* %1)
  store i32 0, i32* %2, align 4
  br label %8

8:                                                ; preds = %20, %0
  %9 = load i32, i32* %2, align 4
  %10 = load i32, i32* %1, align 4
  %11 = icmp slt i32 %9, %10
  br i1 %11, label %12, label %23

12:                                               ; preds = %8
  %13 = load i32, i32* %2, align 4
  %14 = sext i32 %13 to i64
  %15 = getelementptr inbounds [25 x i32], [25 x i32]* %5, i64 0, i64 %14
  %16 = call i32 (i8*, ...) @__isoc99_scanf(i8* getelementptr inbounds ([3 x i8], [3 x i8]* @.str, i64 0, i64 0), i32* %15)
  %17 = load i32, i32* %2, align 4
  %18 = sext i32 %17 to i64
  %19 = getelementptr inbounds [25 x i32], [25 x i32]* %6, i64 0, i64 %18
  store i32 1, i32* %19, align 4
  br label %20

20:                                               ; preds = %12
  %21 = load i32, i32* %2, align 4
  %22 = add nsw i32 %21, 1
  store i32 %22, i32* %2, align 4
  br label %8

23:                                               ; preds = %8
  store i32 1, i32* %2, align 4
  br label %24

24:                                               ; preds = %80, %23
  %25 = load i32, i32* %2, align 4
  %26 = load i32, i32* %1, align 4
  %27 = icmp slt i32 %25, %26
  br i1 %27, label %28, label %83

28:                                               ; preds = %24
  store i32 0, i32* %3, align 4
  br label %29

29:                                               ; preds = %76, %28
  %30 = load i32, i32* %3, align 4
  %31 = load i32, i32* %2, align 4
  %32 = icmp slt i32 %30, %31
  br i1 %32, label %33, label %79

33:                                               ; preds = %29
  %34 = load i32, i32* %2, align 4
  %35 = sext i32 %34 to i64
  %36 = getelementptr inbounds [25 x i32], [25 x i32]* %5, i64 0, i64 %35
  %37 = load i32, i32* %36, align 4
  %38 = load i32, i32* %3, align 4
  %39 = sext i32 %38 to i64
  %40 = getelementptr inbounds [25 x i32], [25 x i32]* %5, i64 0, i64 %39
  %41 = load i32, i32* %40, align 4
  %42 = icmp sle i32 %37, %41
  br i1 %42, label %43, label %75

43:                                               ; preds = %33
  %44 = load i32, i32* %2, align 4
  %45 = sext i32 %44 to i64
  %46 = getelementptr inbounds [25 x i32], [25 x i32]* %6, i64 0, i64 %45
  %47 = load i32, i32* %46, align 4
  %48 = load i32, i32* %3, align 4
  %49 = sext i32 %48 to i64
  %50 = getelementptr inbounds [25 x i32], [25 x i32]* %6, i64 0, i64 %49
  %51 = load i32, i32* %50, align 4
  %52 = add nsw i32 %51, 1
  %53 = icmp slt i32 %47, %52
  br i1 %53, label %54, label %75

54:                                               ; preds = %43
  %55 = load i32, i32* %3, align 4
  %56 = sext i32 %55 to i64
  %57 = getelementptr inbounds [25 x i32], [25 x i32]* %6, i64 0, i64 %56
  %58 = load i32, i32* %57, align 4
  %59 = add nsw i32 %58, 1
  %60 = load i32, i32* %2, align 4
  %61 = sext i32 %60 to i64
  %62 = getelementptr inbounds [25 x i32], [25 x i32]* %6, i64 0, i64 %61
  store i32 %59, i32* %62, align 4
  %63 = load i32, i32* %2, align 4
  %64 = sext i32 %63 to i64
  %65 = getelementptr inbounds [25 x i32], [25 x i32]* %6, i64 0, i64 %64
  %66 = load i32, i32* %65, align 4
  %67 = load i32, i32* %4, align 4
  %68 = icmp sgt i32 %66, %67
  br i1 %68, label %69, label %74

69:                                               ; preds = %54
  %70 = load i32, i32* %2, align 4
  %71 = sext i32 %70 to i64
  %72 = getelementptr inbounds [25 x i32], [25 x i32]* %6, i64 0, i64 %71
  %73 = load i32, i32* %72, align 4
  store i32 %73, i32* %4, align 4
  br label %74

74:                                               ; preds = %69, %54
  br label %75

75:                                               ; preds = %74, %43, %33
  br label %76

76:                                               ; preds = %75
  %77 = load i32, i32* %3, align 4
  %78 = add nsw i32 %77, 1
  store i32 %78, i32* %3, align 4
  br label %29

79:                                               ; preds = %29
  br label %80

80:                                               ; preds = %79
  %81 = load i32, i32* %2, align 4
  %82 = add nsw i32 %81, 1
  store i32 %82, i32* %2, align 4
  br label %24

83:                                               ; preds = %24
  %84 = load i32, i32* %4, align 4
  %85 = call i32 (i8*, ...) @printf(i8* getelementptr inbounds ([4 x i8], [4 x i8]* @.str.1, i64 0, i64 0), i32 %84)
  ret void
}

declare dso_local i32 @__isoc99_scanf(i8*, ...) #1

declare dso_local i32 @printf(i8*, ...) #1


!llvm.module.flags = !{!0}
!llvm.ident = !{!1}

!0 = !{i32 1, !"wchar_size", i32 4}
!1 = !{!"clang version 10.0.0-4ubuntu1 "}
